target datalayout = "e-m:e-p270:32:32-p271:32:32-p272:64:64-i64:64-i128:128-f80:128-n8:16:32:64-S128"
target triple = "x86_64-pc-linux-gnu"

%struct.Cnf_Dat_t_ = type { ptr, i32, i32, i32, ptr, ptr, ptr, ptr, ptr, ptr }

; Function Attrs: nounwind uwtable
define internal i32 @Abc_Var2Lit(i32 noundef %0, i32 noundef %1) #0 {
  %3 = alloca i32, align 4
  %4 = alloca i32, align 4
  store i32 %0, ptr %3, align 4
  store i32 %1, ptr %4, align 4
  %5 = load i32, ptr %3, align 4
  %6 = load i32, ptr %3, align 4
  %7 = add nsw i32 %5, %6
  %8 = load i32, ptr %4, align 4
  %9 = add nsw i32 %7, %8
  ret i32 %9
}

; Function Attrs: nounwind uwtable
define i32 @Acb_CheckMiter(ptr noundef %0) #0 {
  %2 = alloca i32, align 4
  %3 = alloca ptr, align 8
  %4 = alloca i32, align 4
  %5 = alloca i32, align 4
  %6 = alloca i32, align 4
  %7 = alloca i32, align 4
  %8 = alloca ptr, align 8
  store ptr %0, ptr %3, align 8
  store i32 1, ptr %4, align 4
  %9 = call ptr @sat_solver_new()
  store ptr %9, ptr %8, align 8
  %10 = load ptr, ptr %8, align 8
  %11 = load ptr, ptr %3, align 8
  %12 = getelementptr inbounds %struct.Cnf_Dat_t_, ptr %11, i32 0, i32 1
  %13 = load i32, ptr %12, align 8
  call void @sat_solver_setnvars(ptr noundef %10, i32 noundef %13)
  store i32 0, ptr %5, align 4
  br label %14

14:                                               ; preds = %41, %1
  %15 = load i32, ptr %5, align 4
  %16 = load ptr, ptr %3, align 8
  %17 = getelementptr inbounds %struct.Cnf_Dat_t_, ptr %16, i32 0, i32 3
  %18 = load i32, ptr %17, align 8
  %19 = icmp slt i32 %15, %18
  br i1 %19, label %20, label %44

20:                                               ; preds = %14
  %21 = load ptr, ptr %8, align 8
  %22 = load ptr, ptr %3, align 8
  %23 = getelementptr inbounds %struct.Cnf_Dat_t_, ptr %22, i32 0, i32 4
  %24 = load ptr, ptr %23, align 8
  %25 = load i32, ptr %5, align 4
  %26 = sext i32 %25 to i64
  %27 = getelementptr inbounds ptr, ptr %24, i64 %26
  %28 = load ptr, ptr %27, align 8
  %29 = load ptr, ptr %3, align 8
  %30 = getelementptr inbounds %struct.Cnf_Dat_t_, ptr %29, i32 0, i32 4
  %31 = load ptr, ptr %30, align 8
  %32 = load i32, ptr %5, align 4
  %33 = add nsw i32 %32, 1
  %34 = sext i32 %33 to i64
  %35 = getelementptr inbounds ptr, ptr %31, i64 %34
  %36 = load ptr, ptr %35, align 8
  %37 = call i32 @sat_solver_addclause(ptr noundef %21, ptr noundef %28, ptr noundef %36)
  %38 = icmp ne i32 %37, 0
  br i1 %38, label %40, label %39

39:                                               ; preds = %20
  store i32 1, ptr %2, align 4
  br label %59

40:                                               ; preds = %20
  br label %41

41:                                               ; preds = %40
  %42 = load i32, ptr %5, align 4
  %43 = add nsw i32 %42, 1
  store i32 %43, ptr %5, align 4
  br label %14, !llvm.loop !144

44:                                               ; preds = %14
  %45 = load i32, ptr %4, align 4
  %46 = call i32 @Abc_Var2Lit(i32 noundef %45, i32 noundef 0)
  store i32 %46, ptr %6, align 4
  %47 = load ptr, ptr %8, align 8
  %48 = getelementptr inbounds i32, ptr %6, i64 1
  %49 = call i32 @sat_solver_addclause(ptr noundef %47, ptr noundef %6, ptr noundef %48)
  %50 = icmp ne i32 %49, 0
  br i1 %50, label %52, label %51

51:                                               ; preds = %44
  store i32 1, ptr %2, align 4
  br label %59

52:                                               ; preds = %44
  %53 = load ptr, ptr %8, align 8
  %54 = call i32 @sat_solver_solve(ptr noundef %53, ptr noundef null, ptr noundef null, i64 noundef 0, i64 noundef 0, i64 noundef 0, i64 noundef 0)
  store i32 %54, ptr %7, align 4
  %55 = load ptr, ptr %8, align 8
  call void @sat_solver_delete(ptr noundef %55)
  %56 = load i32, ptr %7, align 4
  %57 = icmp eq i32 %56, -1
  %58 = zext i1 %57 to i32
  store i32 %58, ptr %2, align 4
  br label %59

59:                                               ; preds = %52, %51, %39
  %60 = load i32, ptr %2, align 4
  ret i32 %60
}