; Function Attrs: nounwind uwtable
define range(i32 0, 2) i32 @Acb_CheckMiter(ptr noundef readonly captures(none) %0) local_unnamed_addr #0 {
  %2 = alloca i32, align 4
  %3 = tail call ptr @sat_solver_new() #31
  %4 = getelementptr inbounds nuw i8, ptr %0, i64 8
  %5 = load i32, ptr %4, align 8
  tail call void @sat_solver_setnvars(ptr noundef %3, i32 noundef %5) #31
  %6 = getelementptr inbounds nuw i8, ptr %0, i64 16
  %7 = getelementptr inbounds nuw i8, ptr %0, i64 24
  br label %8

8:                                                ; preds = %12, %1
  %indvars.iv = phi i64 [ %indvars.iv.next, %12 ], [ 0, %1 ]
  %9 = load i32, ptr %6, align 8
  %10 = sext i32 %9 to i64
  %11 = icmp slt i64 %indvars.iv, %10
  br i1 %11, label %12, label %19

12:                                               ; preds = %8
  %13 = load ptr, ptr %7, align 8
  %14 = getelementptr inbounds nuw ptr, ptr %13, i64 %indvars.iv
  %15 = load ptr, ptr %14, align 8
  %indvars.iv.next = add nuw nsw i64 %indvars.iv, 1
  %16 = getelementptr inbounds nuw ptr, ptr %13, i64 %indvars.iv.next
  %17 = load ptr, ptr %16, align 8
  %18 = tail call i32 @sat_solver_addclause(ptr noundef %3, ptr noundef %15, ptr noundef %17) #31
  %.not16 = icmp eq i32 %18, 0
  br i1 %.not16, label %.loopexit, label %8, !llvm.loop !130

19:                                               ; preds = %8
  store i32 2, ptr %2, align 4
  %20 = getelementptr inbounds nuw i8, ptr %2, i64 4
  %21 = call i32 @sat_solver_addclause(ptr noundef %3, ptr noundef nonnull %2, ptr noundef nonnull %20) #31
  %.not = icmp eq i32 %21, 0
  br i1 %.not, label %.loopexit, label %22

22:                                               ; preds = %19
  %23 = call i32 @sat_solver_solve(ptr noundef %3, ptr noundef null, ptr noundef null, i64 noundef 0, i64 noundef 0, i64 noundef 0, i64 noundef 0) #31
  call void @sat_solver_delete(ptr noundef %3) #31
  %24 = icmp eq i32 %23, -1
  %25 = zext i1 %24 to i32
  br label %.loopexit

.loopexit:                                        ; preds = %12, %19, %22
  %.0 = phi i32 [ %25, %22 ], [ 1, %19 ], [ 1, %12 ]
  ret i32 %.0
}